target datalayout = "e-m:e-p270:32:32-p271:32:32-p272:64:64-i64:64-i128:128-f80:128-n8:16:32:64-S128"
target triple = "x86_64-pc-linux-gnu"

@exit_reason = internal global ptr null, align 8
@exit_func = internal global ptr null, align 8
@exit_line = internal global i32 0, align 4
@.str.33 = private unnamed_addr constant [31 x i8] c"Invalid command-line arguments\00", align 1
@.str.34 = private unnamed_addr constant [32 x i8] c"Unable to connect to all clamds\00", align 1
@.str.35 = private unnamed_addr constant [14 x i8] c"Out of memory\00", align 1
@.str.36 = private unnamed_addr constant [55 x i8] c"Failed to reconnect to clamd after connection was lost\00", align 1
@.str.37 = private unnamed_addr constant [15 x i8] c"User interrupt\00", align 1
@.str.38 = private unnamed_addr constant [8 x i8] c"Unknown\00", align 1

; Function Attrs: noreturn nounwind uwtable
define internal void @exit_program(i32 noundef %0, ptr noundef %1, i32 noundef %2) #8 {
  %4 = alloca i32, align 4
  %5 = alloca ptr, align 8
  %6 = alloca i32, align 4
  store i32 %0, ptr %4, align 4
  store ptr %1, ptr %5, align 8
  store i32 %2, ptr %6, align 4
  %7 = load i32, ptr %4, align 4
  switch i32 %7, label %13 [
    i32 1, label %8
    i32 2, label %9
    i32 3, label %10
    i32 4, label %11
    i32 5, label %12
  ]

8:                                                ; preds = %3
  store ptr @.str.33, ptr @exit_reason, align 8
  br label %14

9:                                                ; preds = %3
  store ptr @.str.34, ptr @exit_reason, align 8
  br label %14

10:                                               ; preds = %3
  store ptr @.str.35, ptr @exit_reason, align 8
  br label %14

11:                                               ; preds = %3
  store ptr @.str.36, ptr @exit_reason, align 8
  br label %14

12:                                               ; preds = %3
  store ptr @.str.37, ptr @exit_reason, align 8
  br label %14

13:                                               ; preds = %3
  store ptr @.str.38, ptr @exit_reason, align 8
  br label %14

14:                                               ; preds = %13, %12, %11, %10, %9, %8
  %15 = load ptr, ptr %5, align 8
  store ptr %15, ptr @exit_func, align 8
  %16 = load i32, ptr %6, align 4
  store i32 %16, ptr @exit_line, align 4
  %17 = load i32, ptr %4, align 4
  call void @exit(i32 noundef %17) #17
  unreachable
}