; Function Attrs: noreturn nounwind uwtable
define internal fastcc void @exit_program(i32 noundef %0, ptr noundef %1, i32 noundef %2) unnamed_addr #15 {
switch.lookup:
  %switch.tableidx = add nsw i32 %0, -1
  %3 = sext i32 %switch.tableidx to i64
  %switch.gep = getelementptr inbounds [5 x ptr], ptr @switch.table.exit_program, i64 0, i64 %3
  %switch.load = load ptr, ptr %switch.gep, align 8
  store ptr %switch.load, ptr @exit_reason, align 8
  store ptr %1, ptr @exit_func, align 8
  store i32 %2, ptr @exit_line, align 4
  tail call void @exit(i32 noundef %0) #30
  unreachable
}